; Function Attrs: mustprogress uwtable
define void @_Z11destroy_binP5t_bin(ptr noundef %0) local_unnamed_addr #0 {
  %2 = getelementptr inbounds i8, ptr %0, i64 4
  %3 = load i32, ptr %2, align 4
  %4 = icmp sgt i32 %3, 0
  br i1 %4, label %5, label %8

5:                                                ; preds = %1
  %6 = getelementptr inbounds i8, ptr %0, i64 8
  %7 = load ptr, ptr %6, align 8
  tail call void @_Z9save_freePKcS0_iPv(ptr noundef nonnull @.str.2, ptr noundef nonnull @.str.1, i32 noundef 56, ptr noundef %7)
  br label %8

8:                                                ; preds = %5, %1
  tail call void @_Z9save_freePKcS0_iPv(ptr noundef nonnull @.str, ptr noundef nonnull @.str.1, i32 noundef 59, ptr noundef nonnull %0)
  ret void
}